; ModuleID = 'source-C-CXX/0/1294.cpp'
source_filename = "source-C-CXX/0/1294.cpp"
target datalayout = "e-m:e-p270:32:32-p271:32:32-p272:64:64-i64:64-f80:128-n8:16:32:64-S128"
target triple = "x86_64-pc-linux-gnu"

%"class.std::ios_base::Init" = type { i8 }
%"class.std::basic_istream" = type { i32 (...)**, i64, %"class.std::basic_ios" }
%"class.std::basic_ios" = type { %"class.std::ios_base", %"class.std::basic_ostream"*, i8, i8, %"class.std::basic_streambuf"*, %"class.std::ctype"*, %"class.std::num_put"*, %"class.std::num_get"* }
%"class.std::ios_base" = type { i32 (...)**, i64, i64, i32, i32, i32, %"struct.std::ios_base::_Callback_list"*, %"struct.std::ios_base::_Words", [8 x %"struct.std::ios_base::_Words"], i32, %"struct.std::ios_base::_Words"*, %"class.std::locale" }
%"struct.std::ios_base::_Callback_list" = type { %"struct.std::ios_base::_Callback_list"*, void (i32, %"class.std::ios_base"*, i32)*, i32, i32 }
%"struct.std::ios_base::_Words" = type { i8*, i64 }
%"class.std::locale" = type { %"class.std::locale::_Impl"* }
%"class.std::locale::_Impl" = type { i32, %"class.std::locale::facet"**, i64, %"class.std::locale::facet"**, i8** }
%"class.std::locale::facet" = type <{ i32 (...)**, i32, [4 x i8] }>
%"class.std::basic_ostream" = type { i32 (...)**, %"class.std::basic_ios" }
%"class.std::basic_streambuf" = type { i32 (...)**, i8*, i8*, i8*, i8*, i8*, i8*, %"class.std::locale" }
%"class.std::ctype" = type <{ %"class.std::locale::facet.base", [4 x i8], %struct.__locale_struct*, i8, [7 x i8], i32*, i32*, i16*, i8, [256 x i8], [256 x i8], i8, [6 x i8] }>
%"class.std::locale::facet.base" = type <{ i32 (...)**, i32 }>
%struct.__locale_struct = type { [13 x %struct.__locale_data*], i16*, i32*, i32*, [13 x i8*] }
%struct.__locale_data = type opaque
%"class.std::num_put" = type { %"class.std::locale::facet.base", [4 x i8] }
%"class.std::num_get" = type { %"class.std::locale::facet.base", [4 x i8] }

@_ZStL8__ioinit = internal global %"class.std::ios_base::Init" zeroinitializer, align 1
@__dso_handle = external hidden global i8
@a = dso_local local_unnamed_addr global i32 0, align 4
@m = dso_local local_unnamed_addr global i32 0, align 4
@s = dso_local local_unnamed_addr global i32 1, align 4
@_ZSt3cin = external global %"class.std::basic_istream", align 8
@_ZSt4cout = external global %"class.std::basic_ostream", align 8
@llvm.global_ctors = appending global [1 x { i32, void ()*, i8* }] [{ i32, void ()*, i8* } { i32 65535, void ()* @_GLOBAL__sub_I_1294.cpp, i8* null }]

declare void @_ZNSt8ios_base4InitC1Ev(%"class.std::ios_base::Init"* nonnull align 1 dereferenceable(1)) unnamed_addr #0

; Function Attrs: nounwind
declare void @_ZNSt8ios_base4InitD1Ev(%"class.std::ios_base::Init"* nonnull align 1 dereferenceable(1)) unnamed_addr #1

; Function Attrs: nofree nounwind
declare i32 @__cxa_atexit(void (i8*)*, i8*, i8*) local_unnamed_addr #2

; Function Attrs: mustprogress nofree nosync nounwind sspstrong uwtable
define dso_local void @_Z4tempiii(i32 %0, i32 %1, i32 %2) local_unnamed_addr #3 {
  %4 = icmp sgt i32 %1, %0
  br i1 %4, label %5, label %6

5:                                                ; preds = %25, %3
  ret void

6:                                                ; preds = %3, %25
  %7 = phi i32 [ %27, %25 ], [ %1, %3 ]
  %8 = phi i32 [ %26, %25 ], [ %0, %3 ]
  %9 = srem i32 %8, %7
  %10 = sdiv i32 %8, %7
  %11 = icmp eq i32 %9, 0
  br i1 %11, label %12, label %25

12:                                               ; preds = %6
  %13 = load i32, i32* @s, align 4, !tbaa !5
  %14 = mul nsw i32 %13, %7
  store i32 %14, i32* @s, align 4, !tbaa !5
  %15 = icmp eq i32 %14, %2
  br i1 %15, label %16, label %19

16:                                               ; preds = %12
  %17 = load i32, i32* @m, align 4, !tbaa !5
  %18 = add nsw i32 %17, 1
  store i32 %18, i32* @m, align 4, !tbaa !5
  br label %21

19:                                               ; preds = %12
  tail call void @_Z4tempiii(i32 %10, i32 %7, i32 %2)
  %20 = load i32, i32* @s, align 4, !tbaa !5
  br label %21

21:                                               ; preds = %19, %16
  %22 = phi i32 [ %20, %19 ], [ %2, %16 ]
  %23 = sdiv i32 %22, %7
  store i32 %23, i32* @s, align 4, !tbaa !5
  %24 = mul nsw i32 %10, %7
  br label %25

25:                                               ; preds = %6, %21
  %26 = phi i32 [ %24, %21 ], [ %8, %6 ]
  %27 = add nsw i32 %7, 1
  %28 = icmp slt i32 %7, %26
  br i1 %28, label %6, label %5, !llvm.loop !9
}

; Function Attrs: argmemonly mustprogress nofree nosync nounwind willreturn
declare void @llvm.lifetime.start.p0i8(i64 immarg, i8* nocapture) #4

; Function Attrs: argmemonly mustprogress nofree nosync nounwind willreturn
declare void @llvm.lifetime.end.p0i8(i64 immarg, i8* nocapture) #4

; Function Attrs: mustprogress norecurse sspstrong uwtable
define dso_local i32 @main() local_unnamed_addr #5 {
  %1 = alloca i32, align 4
  %2 = alloca i32, align 4
  %3 = bitcast i32* %1 to i8*
  call void @llvm.lifetime.start.p0i8(i64 4, i8* nonnull %3) #8
  %4 = bitcast i32* %2 to i8*
  call void @llvm.lifetime.start.p0i8(i64 4, i8* nonnull %4) #8
  %5 = call nonnull align 8 dereferenceable(16) %"class.std::basic_istream"* @_ZNSirsERi(%"class.std::basic_istream"* nonnull align 8 dereferenceable(16) @_ZSt3cin, i32* nonnull align 4 dereferenceable(4) %1)
  %6 = load i32, i32* %1, align 4, !tbaa !5
  %7 = icmp sgt i32 %6, 0
  br i1 %7, label %8, label %46

8:                                                ; preds = %0, %39
  %9 = phi i32 [ %43, %39 ], [ 0, %0 ]
  %10 = call nonnull align 8 dereferenceable(16) %"class.std::basic_istream"* @_ZNSirsERi(%"class.std::basic_istream"* nonnull align 8 dereferenceable(16) @_ZSt3cin, i32* nonnull align 4 dereferenceable(4) %2)
  %11 = load i32, i32* %2, align 4, !tbaa !5
  call void @_Z4tempiii(i32 %11, i32 2, i32 %11)
  %12 = load i32, i32* @m, align 4, !tbaa !5
  %13 = call nonnull align 8 dereferenceable(8) %"class.std::basic_ostream"* @_ZNSolsEi(%"class.std::basic_ostream"* nonnull align 8 dereferenceable(8) @_ZSt4cout, i32 %12)
  %14 = bitcast %"class.std::basic_ostream"* %13 to i8**
  %15 = load i8*, i8** %14, align 8, !tbaa !11
  %16 = getelementptr i8, i8* %15, i64 -24
  %17 = bitcast i8* %16 to i64*
  %18 = load i64, i64* %17, align 8
  %19 = bitcast %"class.std::basic_ostream"* %13 to i8*
  %20 = add nsw i64 %18, 240
  %21 = getelementptr inbounds i8, i8* %19, i64 %20
  %22 = bitcast i8* %21 to %"class.std::ctype"**
  %23 = load %"class.std::ctype"*, %"class.std::ctype"** %22, align 8, !tbaa !13
  %24 = icmp eq %"class.std::ctype"* %23, null
  br i1 %24, label %25, label %26

25:                                               ; preds = %8
  call void @_ZSt16__throw_bad_castv() #9
  unreachable

26:                                               ; preds = %8
  %27 = getelementptr inbounds %"class.std::ctype", %"class.std::ctype"* %23, i64 0, i32 8
  %28 = load i8, i8* %27, align 8, !tbaa !17
  %29 = icmp eq i8 %28, 0
  br i1 %29, label %33, label %30

30:                                               ; preds = %26
  %31 = getelementptr inbounds %"class.std::ctype", %"class.std::ctype"* %23, i64 0, i32 9, i64 10
  %32 = load i8, i8* %31, align 1, !tbaa !19
  br label %39

33:                                               ; preds = %26
  call void @_ZNKSt5ctypeIcE13_M_widen_initEv(%"class.std::ctype"* nonnull align 8 dereferenceable(570) %23)
  %34 = bitcast %"class.std::ctype"* %23 to i8 (%"class.std::ctype"*, i8)***
  %35 = load i8 (%"class.std::ctype"*, i8)**, i8 (%"class.std::ctype"*, i8)*** %34, align 8, !tbaa !11
  %36 = getelementptr inbounds i8 (%"class.std::ctype"*, i8)*, i8 (%"class.std::ctype"*, i8)** %35, i64 6
  %37 = load i8 (%"class.std::ctype"*, i8)*, i8 (%"class.std::ctype"*, i8)** %36, align 8
  %38 = call signext i8 %37(%"class.std::ctype"* nonnull align 8 dereferenceable(570) %23, i8 signext 10)
  br label %39

39:                                               ; preds = %30, %33
  %40 = phi i8 [ %32, %30 ], [ %38, %33 ]
  %41 = call nonnull align 8 dereferenceable(8) %"class.std::basic_ostream"* @_ZNSo3putEc(%"class.std::basic_ostream"* nonnull align 8 dereferenceable(8) %13, i8 signext %40)
  %42 = call nonnull align 8 dereferenceable(8) %"class.std::basic_ostream"* @_ZNSo5flushEv(%"class.std::basic_ostream"* nonnull align 8 dereferenceable(8) %41)
  store i32 0, i32* @m, align 4, !tbaa !5
  %43 = add nuw nsw i32 %9, 1
  %44 = load i32, i32* %1, align 4, !tbaa !5
  %45 = icmp slt i32 %43, %44
  br i1 %45, label %8, label %46, !llvm.loop !20

46:                                               ; preds = %39, %0
  call void @llvm.lifetime.end.p0i8(i64 4, i8* nonnull %4) #8
  call void @llvm.lifetime.end.p0i8(i64 4, i8* nonnull %3) #8
  ret i32 0
}

declare nonnull align 8 dereferenceable(16) %"class.std::basic_istream"* @_ZNSirsERi(%"class.std::basic_istream"* nonnull align 8 dereferenceable(16), i32* nonnull align 4 dereferenceable(4)) local_unnamed_addr #0

declare nonnull align 8 dereferenceable(8) %"class.std::basic_ostream"* @_ZNSolsEi(%"class.std::basic_ostream"* nonnull align 8 dereferenceable(8), i32) local_unnamed_addr #0

declare nonnull align 8 dereferenceable(8) %"class.std::basic_ostream"* @_ZNSo3putEc(%"class.std::basic_ostream"* nonnull align 8 dereferenceable(8), i8 signext) local_unnamed_addr #0

declare nonnull align 8 dereferenceable(8) %"class.std::basic_ostream"* @_ZNSo5flushEv(%"class.std::basic_ostream"* nonnull align 8 dereferenceable(8)) local_unnamed_addr #0

; Function Attrs: noreturn
declare void @_ZSt16__throw_bad_castv() local_unnamed_addr #6

declare void @_ZNKSt5ctypeIcE13_M_widen_initEv(%"class.std::ctype"* nonnull align 8 dereferenceable(570)) local_unnamed_addr #0

; Function Attrs: sspstrong uwtable
define internal void @_GLOBAL__sub_I_1294.cpp() #7 section ".text.startup" {
  tail call void @_ZNSt8ios_base4InitC1Ev(%"class.std::ios_base::Init"* nonnull align 1 dereferenceable(1) @_ZStL8__ioinit)
  %1 = tail call i32 @__cxa_atexit(void (i8*)* bitcast (void (%"class.std::ios_base::Init"*)* @_ZNSt8ios_base4InitD1Ev to void (i8*)*), i8* getelementptr inbounds (%"class.std::ios_base::Init", %"class.std::ios_base::Init"* @_ZStL8__ioinit, i64 0, i32 0), i8* nonnull @__dso_handle) #8
  ret void
}


!llvm.module.flags = !{!0, !1, !2, !3}
!llvm.ident = !{!4}

!0 = !{i32 1, !"wchar_size", i32 4}
!1 = !{i32 7, !"PIC Level", i32 2}
!2 = !{i32 7, !"PIE Level", i32 2}
!3 = !{i32 7, !"uwtable", i32 1}
!4 = !{!"clang version 13.0.0"}
!5 = !{!6, !6, i64 0}
!6 = !{!"int", !7, i64 0}
!7 = !{!"omnipotent char", !8, i64 0}
!8 = !{!"Simple C++ TBAA"}
!9 = distinct !{!9, !10}
!10 = !{!"llvm.loop.mustprogress"}
!11 = !{!12, !12, i64 0}
!12 = !{!"vtable pointer", !8, i64 0}
!13 = !{!14, !15, i64 240}
!14 = !{!"_ZTSSt9basic_iosIcSt11char_traitsIcEE", !15, i64 216, !7, i64 224, !16, i64 225, !15, i64 232, !15, i64 240, !15, i64 248, !15, i64 256}
!15 = !{!"any pointer", !7, i64 0}
!16 = !{!"bool", !7, i64 0}
!17 = !{!18, !7, i64 56}
!18 = !{!"_ZTSSt5ctypeIcE", !15, i64 16, !16, i64 24, !15, i64 32, !15, i64 40, !15, i64 48, !7, i64 56, !7, i64 57, !7, i64 313, !7, i64 569}
!19 = !{!7, !7, i64 0}
!20 = distinct !{!20, !10}
